(dp1
S'output'
p2
S'missing "pass" in view'
p3
sS'layer'
p4
S'ParserContainer'
p5
sS'code'
p6
S'response.write(\'<!DOCTYPE html>\\n<!--[if (gt IE 9)|!(IE)]><!--> <html class="no-js" lang="\', escape=False)\nresponse.write(T.accepted_language or \'en\')\nresponse.write(\'"> <!--<![endif]-->\\n    <head>\\n        <meta charset="utf-8">\\n        <!-- www.phpied.com/conditional-comments-block-downloads/ -->\\n        <!-- Always force latest IE rendering engine\\n             (even in intranet) & Chrome Frame\\n             Remove this if you use the .htaccess -->\\n        <meta http-equiv="X-UA-Compatible" content="IE=edge\', escape=False)\nresponse.write(not request.is_local and \',chrome=1\' or \'\')\nresponse.write(\'">\\n        <!--  Mobile Viewport Fix\\n              j.mp/mobileviewport & davidbcalhoun.com/2010/viewport-metatag\\n              device-width: Occupy full width of the screen in its current orientation\\n              initial-scale = 1.0 retains dimensions instead of zooming out if page height > device height\\n              user-scalable = yes allows the user to zoom in -->\\n        <meta name="viewport" content="width=device-width, initial-scale=1.0">\\n        <title>\', escape=False)\nresponse.write(response.title or request.application)\nresponse.write(\'</title>\\n        <!-- http://dev.w3.org/html5/markup/meta.name.html -->\\n        <meta name="application-name" content="\', escape=False)\nresponse.write(request.application)\nresponse.write(\'">\\n        <!-- Speaking of Google, don\\\'t forget to set your site up:\\n             http://google.com/webmasters -->\\n\\n        <!-- link the style sheet -->\\n        <link type="text/css" rel="stylesheet" href=\', escape=False)\nresponse.write(URL(\'static\', \'css/purecss/pure.css\'))\nresponse.write(\'>\\n        <link type="text/css" rel="stylesheet" href=\', escape=False)\nresponse.write(URL(\'static\', \'css/purecss/grids.css\'))\nresponse.write(\'>\\n        <link type="text/css" rel="stylesheet" href=\', escape=False)\nresponse.write(URL(\'static\', \'css/purecss/grids-responsive.css\'))\nresponse.write(\'>\\n        <link rel="stylesheet" type="text/css" href=\', escape=False)\nresponse.write(URL(\'static\', \'css/mysite.css\'))\nresponse.write(\'>\\n\\n\\n    </head>\\n    <body>\\n\\n        <div class="head">\\n\\n            <div class="page">\\n                <div class="slogan">\\n                    <h1 class="slogan-head">This is my site</h1>\\n                    <a class="slogan-link" href="\', escape=False)\nresponse.write(URL(\'default\', \'message\'))\nresponse.write(\'"></a>\\n                </div>\\n\\n                <div class="pure-menu pure-menu-horizontal">\\n                    <ul class="pure-menu-list pure-g">\\n                        <li class="pure-menu-item pure-u-1-4">\\n                            <a class="pure-menu-link menu1 \', escape=False)\nif response.whichPage == \'message\':\n    response.write("menu-active")\n    response.write(\'" href="\', escape=False)\n    response.write(URL(\'default\', \'message\'))\n    response.write(\'">\', escape=False)\n    response.write(T(\'Message\'))\n    response.write(\'</a>\\n                        </li>\\n                        <li class="pure-menu-item pure-u-1-4">\\n                            <a class="pure-menu-link menu2" href="\', escape=False)\n    response.write(URL(\'default\', \'links\'))\n    response.write(\'">\', escape=False)\n    response.write(T(\'Links\'))\n    response.write(\'</a>\\n                        </li>\\n                        <li class="pure-menu-item pure-u-1-4">\\n                            <a class="pure-menu-link menu3" href="\', escape=False)\n    response.write(URL(\'default\', \'article\'))\n    response.write(\'">\', escape=False)\n    response.write(T(\'Article\'))\n    response.write(\'</a>\\n                        </li>\\n                        <li class="pure-menu-item pure-u-1-4">\\n                            <a class="pure-menu-link menu4" href="\', escape=False)\n    response.write(URL(\'default\', \'about\'))\n    response.write(\'">\', escape=False)\n    response.write(T(\'About\'))\n    response.write(\'</a>\\n                        </li>\\n                    </ul>\\n                </div>\\n            </div>\\n\\n        </div>\\n\\n        <div class="page content">\\n            \', escape=False)\n    response.write(\'\\n    <div class="slide">\\n        <form class="pure-form post-form">\\n            <input type="text" name="secret" placeholder="the secret" class="pure-input-1 pure-input-rounded">\\n            <fieldset class="pure-group">\\n                <select name="category" class="pure-input-1">\\n                    <option>Simple</option>\\n                    <option>Network</option>\\n                    <option>C/C++</option>\\n                </select>\\n                <input type="text" name="title" placeholder="the title" class="pure-input-1"/>\\n                <textarea name="message" placeholder="the content" class="pure-input-1" rows="7" ></textarea>\\n            </fieldset>\\n\\n            <button type="submit" name="submit" class="pure-input-1 pure-button pure-button-primary">Submit</button>\\n        </form>\\n    </div>\\n\\n    <div class="slide post">\\n        <h2 class="post-head">This is a special message</h2>\\n\\n        <ul class="post-info">\\n            <li class="post-info-item"><span class="post-info-key">Category</span><span class="post-info-value">Simple</span></li>\\n            <li class="post-info-item"><span class="post-info-key">Date</span><time class="post-info-value">2015.6.2</time></li>\\n        </ul>\\n\\n        <p class="post-content">\\n            Pure doesn\\\'t ship with icon fonts, but we play nice with existing ones.\\n            Incorporating icon fonts with Pure Buttons is easy. In the example below, we\\\'re using icon fonts from Font Awesome.\\n            Put the Font Awesome CSS file on your page and use an &lt;i&gt; element within a pure-button element...\\n        </p>\\n\\n        <p class="post-content post-content-more">Read More</p>\\n\\n        <ul class="post-foot">\\n            <li class="post-foot-item"><span class="post-foot-key">Views</span><span class="post-foot-value">150</span></li>\\n            <li class="post-foot-item"><span class="post-foot-key">Comment</span><span class="post-foot-value">30</span></li>\\n        </ul>\\n    </div>\\n\\n    <div class="slide post">\\n        <h2 class="post-head">This is a special message</h2>\\n\\n        <ul class="post-info">\\n            <li class="post-info-item"><span class="post-info-key">Category</span><span class="post-info-value">Simple</span></li>\\n            <li class="post-info-item"><span class="post-info-key">Date</span><time class="post-info-value">2015.6.2</time></li>\\n        </ul>\\n\\n        <p class="post-content">\\n            Pure doesn\\\'t ship with icon fonts, but we play nice with existing ones.\\n            Incorporating icon fonts with Pure Buttons is easy. In the example below, we\\\'re using icon fonts from Font Awesome.\\n            Put the Font Awesome CSS file on your page and use an &lt;i&gt; element within a pure-button element...\\n        </p>\\n\\n        <p class="post-content post-content-more">Read More</p>\\n\\n        <ul class="post-foot">\\n            <li class="post-foot-item"><span class="post-foot-key">Views</span><span class="post-foot-value">150</span></li>\\n            <li class="post-foot-item"><span class="post-foot-key">Comment</span><span class="post-foot-value">30</span></li>\\n        </ul>\\n    </div>\\n\', escape=False)\n    response.write(\'\\n        </div>\\n\\n        <div class="foot">\\n            <p class="page foot-info">Do thank, Do given</p>\\n        </div>\\n    </body>\\n</html>\\n\', escape=False)'
p7
sS'snapshot'
p8
(dp9
S'exception'
p10
(dp11
S'__module__'
p12
S"'gluon.rocket'"
p13
sS'__getslice__'
p14
S"<method-wrapper '__getslice__' of SocketTimeout object>"
p15
sS'__str__'
p16
S"<method-wrapper '__str__' of SocketTimeout object>"
p17
sS'__reduce__'
p18
S'<built-in method __reduce__ of SocketTimeout object>'
p19
sS'__dict__'
p20
S'{}'
p21
sS'__sizeof__'
p22
S'<built-in method __sizeof__ of SocketTimeout object>'
p23
sS'__weakref__'
p24
S'None'
p25
sS'__init__'
p26
S"<method-wrapper '__init__' of SocketTimeout object>"
p27
sS'__setattr__'
p28
S"<method-wrapper '__setattr__' of SocketTimeout object>"
p29
sS'__reduce_ex__'
p30
S'<built-in method __reduce_ex__ of SocketTimeout object>'
p31
sS'__new__'
p32
S'<built-in method __new__ of type object>'
p33
sS'__format__'
p34
S'<built-in method __format__ of SocketTimeout object>'
p35
sS'__class__'
p36
S"<class 'gluon.rocket.SocketTimeout'>"
p37
sS'__doc__'
p38
S"'Exception for when a socket times out between requests.'"
p39
sS'__getitem__'
p40
S"<method-wrapper '__getitem__' of SocketTimeout object>"
p41
sS'__setstate__'
p42
S'<built-in method __setstate__ of SocketTimeout object>'
p43
sS'__getattribute__'
p44
S"<method-wrapper '__getattribute__' of SocketTimeout object>"
p45
sS'args'
p46
S"('Socket timed out before request.',)"
p47
sS'__subclasshook__'
p48
S'<built-in method __subclasshook__ of type object>'
p49
sS'__unicode__'
p50
S'<built-in method __unicode__ of SocketTimeout object>'
p51
sS'__delattr__'
p52
S"<method-wrapper '__delattr__' of SocketTimeout object>"
p53
sS'__repr__'
p54
S"<method-wrapper '__repr__' of SocketTimeout object>"
p55
sS'__hash__'
p56
S"<method-wrapper '__hash__' of SocketTimeout object>"
p57
ssS'evalue'
p58
S'Socket timed out before request.'
p59
sS'frames'
p60
(lp61
(dp62
S'file'
p63
S'/home/wangyong/Workspace/Web2Py/mysite/web2py/gluon/rocket.py'
p64
sS'dump'
p65
(dp66
S'self'
p67
S'<WSGIWorker(Thread-6, started daemon 140546919982848)>'
p68
sS'conn'
p69
S'<gluon.rocket.Connection object>'
p70
sS'self.run_app'
p71
S'<bound method WSGIWorker.run_app of <WSGIWorker(Thread-6, started daemon 140546919982848)>>'
p72
ssS'lnum'
p73
I1337
sS'lines'
p74
(dp75
I1332
S'            # Enter connection serve loop'
p76
sI1333
S'            while True:'
p77
sI1334
S'                if __debug__:'
p78
sI1335
S"                    self.err_log.debug('Serving a request')"
p79
sI1336
S'                try:'
p80
sI1337
S'                    self.run_app(conn)'
p81
sI1338
S'                except:'
p82
sI1339
S'                    exc = sys.exc_info()'
p83
sI1340
S'                    handled = self._handleError(*exc)'
p84
sI1341
S'                    if handled:'
p85
ssS'call'
p86
S'(self=<WSGIWorker(Thread-6, started daemon 140546919982848)>)'
p87
sS'func'
p88
S'run'
p89
sa(dp90
g63
S'/home/wangyong/Workspace/Web2Py/mysite/web2py/gluon/rocket.py'
p91
sg65
(dp92
S'self'
p93
S'<WSGIWorker(Thread-6, started daemon 140546919982848)>'
p94
sS'self.environ'
p95
S"{'HTTP_ACCEPT': 'text/html,application/xhtml+xml,application/xml;q=0.9,*/*;q=0.8', 'HTTP_ACCEPT_ENCODING': 'gzip, deflate', 'HTTP_ACCEPT_LANGUAGE': 'en-US,en;q=0.5', 'HTTP_CONNECTION': 'keep-alive', 'HTTP_COOKIE': 'session_id_mysite=127.0.0.1-6aa8bbd7-f3d8-4baa-b...in=127.0.0.1-2d1bed7f-e7e5-4a37-bf9d-05f262952422', 'HTTP_HOST': '127.0.0.1:8000', 'HTTP_USER_AGENT': 'Mozilla/5.0 (X11; Linux x86_64; rv:24.0) Gecko/20100101 Firefox/24.0', 'PATH_INFO': '/mysite/default/message', 'QUERY_STRING': '', 'REMOTE_ADDR': '127.0.0.1', ...}"
p96
sS'sock_file'
p97
S'<socket._fileobject object>'
p98
sS'environ'
p99
S'undefined'
p100
sS'self.build_environ'
p101
S'<bound method WSGIWorker.build_environ of <WSGIWorker(Thread-6, started daemon 140546919982848)>>'
p102
sS'conn'
p103
S'<gluon.rocket.Connection object>'
p104
ssg73
I1830
sg74
(dp105
I1825
S'        else:'
p106
sI1826
S'            sock_file = conn.makefile(BUF_SIZE)'
p107
sI1827
S''
sI1828
S'        try:'
p108
sI1829
S'            # Read the headers and build our WSGI environment'
p109
sI1830
S'            self.environ = environ = self.build_environ(sock_file, conn)'
p110
sI1831
S''
sI1832
S'            # Handle 100 Continue'
p111
sI1833
S"            if environ.get('HTTP_EXPECT', '') == '100-continue':"
p112
sI1834
S"                res = environ['SERVER_PROTOCOL'] + ' 100 Continue\\r\\n\\r\\n'"
p113
ssg86
S'(self=<WSGIWorker(Thread-6, started daemon 140546919982848)>, conn=<gluon.rocket.Connection object>)'
p114
sg88
S'run_app'
p115
sa(dp116
g63
S'/home/wangyong/Workspace/Web2Py/mysite/web2py/gluon/rocket.py'
p117
sg65
(dp118
S'sock_file'
p119
S'<socket._fileobject object>'
p120
sS'self.read_request_line'
p121
S'<bound method WSGIWorker.read_request_line of <W...orker(Thread-6, started daemon 140546919982848)>>'
p122
sS'self'
p123
S'<WSGIWorker(Thread-6, started daemon 140546919982848)>'
p124
sS'request'
p125
g100
ssg73
I1650
sg74
(dp126
I1645
S'                                      "wsgiorg.futures": executor.futures})'
p127
sI1646
S''
sI1647
S'    def build_environ(self, sock_file, conn):'
p128
sI1648
S'        """ Build the execution environment. """'
p129
sI1649
S'        # Grab the request line'
p130
sI1650
S'        request = self.read_request_line(sock_file)'
p131
sI1651
S''
sI1652
S'        # Copy the Base Environment'
p132
sI1653
S'        environ = self.base_environ.copy()'
p133
sI1654
S''
ssg86
S'(self=<WSGIWorker(Thread-6, started daemon 140546919982848)>, sock_file=<socket._fileobject object>, conn=<gluon.rocket.Connection object>)'
p134
sg88
S'build_environ'
p135
sa(dp136
g63
S'/home/wangyong/Workspace/Web2Py/mysite/web2py/gluon/rocket.py'
p137
sg65
(dp138
S'global SocketTimeout'
p139
S"<class 'gluon.rocket.SocketTimeout'>"
p140
ssg73
I1401
sg74
(dp141
I1396
S''
sI1397
S'                d = sock_file.readline()'
p142
sI1398
S'                if PY3K:'
p143
sI1399
S"                    d = d.decode('ISO-8859-1')"
p144
sI1400
S'        except socket.timeout:'
p145
sI1401
S"            raise SocketTimeout('Socket timed out before request.')"
p146
sI1402
S'        except TypeError:'
p147
sI1403
S'            raise SocketClosed('
p148
sI1404
S"                'SSL bug caused closure of socket.  See '"
p149
sI1405
S'                \'"https://groups.google.com/d/topic/web2py/P_Gw0JxWzCs".\')'
p150
ssg86
S'(self=<WSGIWorker(Thread-6, started daemon 140546919982848)>, sock_file=<socket._fileobject object>)'
p151
sg88
S'read_request_line'
p152
sasS'pyver'
p153
S'Python 2.7.5: /usr/bin/python2.7 (prefix: /usr)'
p154
sS'etype'
p155
S"<class 'gluon.rocket.SocketTimeout'>"
p156
sS'date'
p157
S'Wed Jun  3 14:25:09 2015'
p158
sS'locals'
p159
(dp160
S'sock_file'
p161
S'<socket._fileobject object>'
p162
sS'self'
p163
S'<WSGIWorker(Thread-6, started daemon 140546919982848)>'
p164
sssS'traceback'
p165
S'Traceback (most recent call last):\n  File "/home/wangyong/Workspace/Web2Py/mysite/web2py/gluon/rocket.py", line 1337, in run\n    self.run_app(conn)\n  File "/home/wangyong/Workspace/Web2Py/mysite/web2py/gluon/rocket.py", line 1830, in run_app\n    self.environ = environ = self.build_environ(sock_file, conn)\n  File "/home/wangyong/Workspace/Web2Py/mysite/web2py/gluon/rocket.py", line 1650, in build_environ\n    request = self.read_request_line(sock_file)\n  File "/home/wangyong/Workspace/Web2Py/mysite/web2py/gluon/rocket.py", line 1401, in read_request_line\n    raise SocketTimeout(\'Socket timed out before request.\')\nSocketTimeout: Socket timed out before request.\n'
p166
s.